; Function Attrs: mustprogress ssp uwtable
define void @_ZN6open3d13visualization30ViewControlWithCustomAnimation14UpdateKeyFrameEv(ptr noundef nonnull align 16 dereferenceable(816) %0) local_unnamed_addr #1 align 2 {
  %2 = getelementptr inbounds nuw i8, ptr %0, i64 728
  %3 = load i32, ptr %2, align 8, !tbaa !26
  %4 = icmp eq i32 %3, 0
  br i1 %4, label %5, label %18

5:                                                ; preds = %1
  %6 = getelementptr inbounds nuw i8, ptr %0, i64 744
  %7 = load ptr, ptr %6, align 8, !tbaa !53
  %8 = getelementptr inbounds nuw i8, ptr %0, i64 752
  %9 = load ptr, ptr %8, align 16, !tbaa !53
  %10 = icmp eq ptr %7, %9
  br i1 %10, label %18, label %11

11:                                               ; preds = %5
  %12 = getelementptr inbounds nuw i8, ptr %0, i64 808
  %13 = load double, ptr %12, align 8, !tbaa !83
  %14 = tail call double @llvm.round.f64(double %13)
  %15 = fptoui double %14 to i64
  %16 = getelementptr inbounds nuw %"class.open3d::visualization::ViewParameters", ptr %7, i64 %15
  %17 = tail call noundef zeroext i1 @_ZNK6open3d13visualization11ViewControl23ConvertToViewParametersERNS0_14ViewParametersE(ptr noundef nonnull align 16 dereferenceable(728) %0, ptr noundef nonnull align 8 dereferenceable(144) %16)
  br label %18

18:                                               ; preds = %11, %5, %1
  ret void
}